target datalayout = "e-m:e-p270:32:32-p271:32:32-p272:64:64-i64:64-i128:128-f80:128-n8:16:32:64-S128"
target triple = "x86_64-pc-linux-gnu"

; Function Attrs: nounwind uwtable
define internal zeroext i16 @vba_endian_convert_16(i16 noundef zeroext %0, i32 noundef %1) #0 {
  %3 = alloca i16, align 2
  %4 = alloca i16, align 2
  %5 = alloca i32, align 4
  store i16 %0, ptr %4, align 2
  store i32 %1, ptr %5, align 4
  %6 = load i32, ptr %5, align 4
  %7 = icmp ne i32 %6, 0
  br i1 %7, label %8, label %19

8:                                                ; preds = %2
  %9 = load i16, ptr %4, align 2
  %10 = zext i16 %9 to i32
  %11 = and i32 %10, 255
  %12 = shl i32 %11, 8
  %13 = load i16, ptr %4, align 2
  %14 = zext i16 %13 to i32
  %15 = ashr i32 %14, 8
  %16 = and i32 %15, 255
  %17 = or i32 %12, %16
  %18 = trunc i32 %17 to i16
  store i16 %18, ptr %3, align 2
  br label %21

19:                                               ; preds = %2
  %20 = load i16, ptr %4, align 2
  store i16 %20, ptr %3, align 2
  br label %21

21:                                               ; preds = %19, %8
  %22 = load i16, ptr %3, align 2
  ret i16 %22
}

; Function Attrs: nounwind uwtable
define internal i32 @read_uint16(i32 noundef %0, ptr noundef %1, i32 noundef %2) #0 {
  %4 = alloca i32, align 4
  %5 = alloca i32, align 4
  %6 = alloca ptr, align 8
  %7 = alloca i32, align 4
  store i32 %0, ptr %5, align 4
  store ptr %1, ptr %6, align 8
  store i32 %2, ptr %7, align 4
  %8 = load i32, ptr %5, align 4
  %9 = load ptr, ptr %6, align 8
  %10 = call i64 @cli_readn(i32 noundef %8, ptr noundef %9, i64 noundef 2)
  %11 = icmp ne i64 %10, 2
  br i1 %11, label %12, label %13

12:                                               ; preds = %3
  store i32 0, ptr %4, align 4
  br label %19

13:                                               ; preds = %3
  %14 = load ptr, ptr %6, align 8
  %15 = load i16, ptr %14, align 2
  %16 = load i32, ptr %7, align 4
  %17 = call zeroext i16 @vba_endian_convert_16(i16 noundef zeroext %15, i32 noundef %16)
  %18 = load ptr, ptr %6, align 8
  store i16 %17, ptr %18, align 2
  store i32 1, ptr %4, align 4
  br label %19

19:                                               ; preds = %13, %12
  %20 = load i32, ptr %4, align 4
  ret i32 %20
}

; Function Attrs: nounwind uwtable
define ptr @cli_vba_inflate(i32 noundef %0, i64 noundef %1, ptr noundef %2) #0 {
  %4 = alloca ptr, align 8
  %5 = alloca i32, align 4
  %6 = alloca i64, align 8
  %7 = alloca ptr, align 8
  %8 = alloca i32, align 4
  %9 = alloca i32, align 4
  %10 = alloca i32, align 4
  %11 = alloca i32, align 4
  %12 = alloca i32, align 4
  %13 = alloca i8, align 1
  %14 = alloca i16, align 2
  %15 = alloca ptr, align 8
  %16 = alloca [4096 x i8], align 16
  %17 = alloca i32, align 4
  %18 = alloca i16, align 2
  %19 = alloca i32, align 4
  store i32 %0, ptr %5, align 4
  store i64 %1, ptr %6, align 8
  store ptr %2, ptr %7, align 8
  %20 = load i32, ptr %5, align 4
  %21 = icmp slt i32 %20, 0
  br i1 %21, label %22, label %23

22:                                               ; preds = %3
  store ptr null, ptr %4, align 8
  br label %237

23:                                               ; preds = %3
  %24 = call ptr @blobCreate()
  store ptr %24, ptr %15, align 8
  %25 = load ptr, ptr %15, align 8
  %26 = icmp eq ptr %25, null
  br i1 %26, label %27, label %28

27:                                               ; preds = %23
  store ptr null, ptr %4, align 8
  br label %237

28:                                               ; preds = %23
  %29 = getelementptr inbounds [4096 x i8], ptr %16, i64 0, i64 0
  call void @llvm.memset.p0.i64(ptr align 16 %29, i8 0, i64 4096, i1 false)
  %30 = load i32, ptr %5, align 4
  %31 = load i64, ptr %6, align 8
  %32 = add nsw i64 %31, 3
  %33 = call i64 @lseek(i32 noundef %30, i64 noundef %32, i32 noundef 0) #8
  store i32 1, ptr %12, align 4
  store i32 0, ptr %8, align 4
  br label %34

34:                                               ; preds = %211, %28
  %35 = load i32, ptr %5, align 4
  %36 = call i64 @cli_readn(i32 noundef %35, ptr noundef %13, i64 noundef 1)
  %37 = icmp eq i64 %36, 1
  br i1 %37, label %38, label %212

38:                                               ; preds = %34
  store i32 1, ptr %10, align 4
  br label %39

39:                                               ; preds = %208, %38
  %40 = load i32, ptr %10, align 4
  %41 = icmp ult i32 %40, 256
  br i1 %41, label %42, label %211

42:                                               ; preds = %39
  %43 = load i32, ptr %8, align 4
  %44 = urem i32 %43, 4096
  store i32 %44, ptr %17, align 4
  %45 = load i8, ptr %13, align 1
  %46 = zext i8 %45 to i32
  %47 = load i32, ptr %10, align 4
  %48 = and i32 %46, %47
  %49 = icmp ne i32 %48, 0
  br i1 %49, label %50, label %172

50:                                               ; preds = %42
  %51 = load i32, ptr %5, align 4
  %52 = call i32 @read_uint16(i32 noundef %51, ptr noundef %14, i32 noundef 0)
  %53 = icmp ne i32 %52, 0
  br i1 %53, label %61, label %54

54:                                               ; preds = %50
  %55 = load ptr, ptr %15, align 8
  call void @blobDestroy(ptr noundef %55)
  %56 = load ptr, ptr %7, align 8
  %57 = icmp ne ptr %56, null
  br i1 %57, label %58, label %60

58:                                               ; preds = %54
  %59 = load ptr, ptr %7, align 8
  store i64 0, ptr %59, align 8
  br label %60

60:                                               ; preds = %58, %54
  store ptr null, ptr %4, align 8
  br label %237

61:                                               ; preds = %50
  %62 = load i32, ptr %17, align 4
  %63 = icmp ugt i32 %62, 16
  %64 = zext i1 %63 to i32
  %65 = sub nsw i32 12, %64
  %66 = load i32, ptr %17, align 4
  %67 = icmp ugt i32 %66, 32
  %68 = zext i1 %67 to i32
  %69 = sub nsw i32 %65, %68
  %70 = load i32, ptr %17, align 4
  %71 = icmp ugt i32 %70, 64
  %72 = zext i1 %71 to i32
  %73 = sub nsw i32 %69, %72
  %74 = load i32, ptr %17, align 4
  %75 = icmp ugt i32 %74, 128
  %76 = zext i1 %75 to i32
  %77 = sub nsw i32 %73, %76
  %78 = load i32, ptr %17, align 4
  %79 = icmp ugt i32 %78, 256
  %80 = zext i1 %79 to i32
  %81 = sub nsw i32 %77, %80
  %82 = load i32, ptr %17, align 4
  %83 = icmp ugt i32 %82, 512
  %84 = zext i1 %83 to i32
  %85 = sub nsw i32 %81, %84
  %86 = load i32, ptr %17, align 4
  %87 = icmp ugt i32 %86, 1024
  %88 = zext i1 %87 to i32
  %89 = sub nsw i32 %85, %88
  %90 = load i32, ptr %17, align 4
  %91 = icmp ugt i32 %90, 2048
  %92 = zext i1 %91 to i32
  %93 = sub nsw i32 %89, %92
  store i32 %93, ptr %9, align 4
  %94 = load i16, ptr %14, align 2
  %95 = zext i16 %94 to i32
  %96 = load i32, ptr %9, align 4
  %97 = shl i32 1, %96
  %98 = sub nsw i32 %97, 1
  %99 = and i32 %95, %98
  %100 = add nsw i32 %99, 3
  %101 = trunc i32 %100 to i16
  store i16 %101, ptr %18, align 2
  %102 = load i16, ptr %14, align 2
  %103 = zext i16 %102 to i32
  %104 = load i32, ptr %9, align 4
  %105 = ashr i32 %103, %104
  store i32 %105, ptr %11, align 4
  %106 = load i32, ptr %8, align 4
  %107 = load i32, ptr %11, align 4
  %108 = sub i32 %106, %107
  %109 = sub i32 %108, 1
  store i32 %109, ptr %19, align 4
  %110 = load i32, ptr %19, align 4
  %111 = load i16, ptr %18, align 2
  %112 = zext i16 %111 to i32
  %113 = add i32 %110, %112
  %114 = urem i32 %113, 4096
  %115 = load i32, ptr %17, align 4
  %116 = icmp ult i32 %114, %115
  br i1 %116, label %117, label %149

117:                                              ; preds = %61
  %118 = load i32, ptr %17, align 4
  %119 = load i16, ptr %18, align 2
  %120 = zext i16 %119 to i32
  %121 = add i32 %118, %120
  %122 = icmp ult i32 %121, 4096
  br i1 %122, label %123, label %149

123:                                              ; preds = %117
  %124 = load i32, ptr %19, align 4
  %125 = urem i32 %124, 4096
  %126 = load i16, ptr %18, align 2
  %127 = zext i16 %126 to i32
  %128 = add i32 %125, %127
  %129 = icmp ult i32 %128, 4096
  br i1 %129, label %130, label %149

130:                                              ; preds = %123
  %131 = load i16, ptr %18, align 2
  %132 = zext i16 %131 to i32
  %133 = icmp sle i32 %132, 4096
  br i1 %133, label %134, label %149

134:                                              ; preds = %130
  %135 = load i32, ptr %19, align 4
  %136 = urem i32 %135, 4096
  store i32 %136, ptr %19, align 4
  %137 = load i32, ptr %17, align 4
  %138 = zext i32 %137 to i64
  %139 = getelementptr inbounds [4096 x i8], ptr %16, i64 0, i64 %138
  %140 = load i32, ptr %19, align 4
  %141 = zext i32 %140 to i64
  %142 = getelementptr inbounds [4096 x i8], ptr %16, i64 0, i64 %141
  %143 = load i16, ptr %18, align 2
  %144 = zext i16 %143 to i64
  call void @llvm.memcpy.p0.p0.i64(ptr align 1 %139, ptr align 1 %142, i64 %144, i1 false)
  %145 = load i16, ptr %18, align 2
  %146 = zext i16 %145 to i32
  %147 = load i32, ptr %8, align 4
  %148 = add i32 %147, %146
  store i32 %148, ptr %8, align 4
  br label %171

149:                                              ; preds = %130, %123, %117, %61
  br label %150

150:                                              ; preds = %155, %149
  %151 = load i16, ptr %18, align 2
  %152 = add i16 %151, -1
  store i16 %152, ptr %18, align 2
  %153 = zext i16 %151 to i32
  %154 = icmp sgt i32 %153, 0
  br i1 %154, label %155, label %170

155:                                              ; preds = %150
  %156 = load i32, ptr %8, align 4
  %157 = load i32, ptr %11, align 4
  %158 = sub i32 %156, %157
  %159 = sub i32 %158, 1
  %160 = urem i32 %159, 4096
  store i32 %160, ptr %19, align 4
  %161 = load i32, ptr %19, align 4
  %162 = zext i32 %161 to i64
  %163 = getelementptr inbounds [4096 x i8], ptr %16, i64 0, i64 %162
  %164 = load i8, ptr %163, align 1
  %165 = load i32, ptr %8, align 4
  %166 = add i32 %165, 1
  store i32 %166, ptr %8, align 4
  %167 = urem i32 %165, 4096
  %168 = zext i32 %167 to i64
  %169 = getelementptr inbounds [4096 x i8], ptr %16, i64 0, i64 %168
  store i8 %164, ptr %169, align 1
  br label %150

170:                                              ; preds = %150
  br label %171

171:                                              ; preds = %170, %134
  br label %207

172:                                              ; preds = %42
  %173 = load i32, ptr %8, align 4
  %174 = icmp ne i32 %173, 0
  br i1 %174, label %175, label %196

175:                                              ; preds = %172
  %176 = load i32, ptr %17, align 4
  %177 = icmp eq i32 %176, 0
  br i1 %177, label %178, label %196

178:                                              ; preds = %175
  %179 = load i32, ptr %12, align 4
  %180 = icmp ne i32 %179, 0
  br i1 %180, label %181, label %196

181:                                              ; preds = %178
  %182 = load i32, ptr %5, align 4
  %183 = call i64 @cli_readn(i32 noundef %182, ptr noundef %14, i64 noundef 2)
  %184 = icmp ne i64 %183, 2
  br i1 %184, label %185, label %192

185:                                              ; preds = %181
  %186 = load ptr, ptr %15, align 8
  call void @blobDestroy(ptr noundef %186)
  %187 = load ptr, ptr %7, align 8
  %188 = icmp ne ptr %187, null
  br i1 %188, label %189, label %191

189:                                              ; preds = %185
  %190 = load ptr, ptr %7, align 8
  store i64 0, ptr %190, align 8
  br label %191

191:                                              ; preds = %189, %185
  store ptr null, ptr %4, align 8
  br label %237

192:                                              ; preds = %181
  %193 = load ptr, ptr %15, align 8
  %194 = getelementptr inbounds [4096 x i8], ptr %16, i64 0, i64 0
  %195 = call i32 @blobAddData(ptr noundef %193, ptr noundef %194, i64 noundef 4096)
  store i32 0, ptr %12, align 4
  br label %211

196:                                              ; preds = %178, %175, %172
  %197 = load i32, ptr %5, align 4
  %198 = load i32, ptr %17, align 4
  %199 = zext i32 %198 to i64
  %200 = getelementptr inbounds [4096 x i8], ptr %16, i64 0, i64 %199
  %201 = call i64 @cli_readn(i32 noundef %197, ptr noundef %200, i64 noundef 1)
  %202 = icmp eq i64 %201, 1
  br i1 %202, label %203, label %206

203:                                              ; preds = %196
  %204 = load i32, ptr %8, align 4
  %205 = add i32 %204, 1
  store i32 %205, ptr %8, align 4
  br label %206

206:                                              ; preds = %203, %196
  br label %207

207:                                              ; preds = %206, %171
  store i32 1, ptr %12, align 4
  br label %208

208:                                              ; preds = %207
  %209 = load i32, ptr %10, align 4
  %210 = shl i32 %209, 1
  store i32 %210, ptr %10, align 4
  br label %39

211:                                              ; preds = %192, %39
  br label %34

212:                                              ; preds = %34
  %213 = load ptr, ptr %15, align 8
  %214 = getelementptr inbounds [4096 x i8], ptr %16, i64 0, i64 0
  %215 = load i32, ptr %8, align 4
  %216 = urem i32 %215, 4096
  %217 = zext i32 %216 to i64
  %218 = call i32 @blobAddData(ptr noundef %213, ptr noundef %214, i64 noundef %217)
  %219 = icmp slt i32 %218, 0
  br i1 %219, label %220, label %227

220:                                              ; preds = %212
  %221 = load ptr, ptr %15, align 8
  call void @blobDestroy(ptr noundef %221)
  %222 = load ptr, ptr %7, align 8
  %223 = icmp ne ptr %222, null
  br i1 %223, label %224, label %226

224:                                              ; preds = %220
  %225 = load ptr, ptr %7, align 8
  store i64 0, ptr %225, align 8
  br label %226

226:                                              ; preds = %224, %220
  store ptr null, ptr %4, align 8
  br label %237

227:                                              ; preds = %212
  %228 = load ptr, ptr %7, align 8
  %229 = icmp ne ptr %228, null
  br i1 %229, label %230, label %234

230:                                              ; preds = %227
  %231 = load ptr, ptr %15, align 8
  %232 = call i64 @blobGetDataSize(ptr noundef %231)
  %233 = load ptr, ptr %7, align 8
  store i64 %232, ptr %233, align 8
  br label %234

234:                                              ; preds = %230, %227
  %235 = load ptr, ptr %15, align 8
  %236 = call ptr @blobToMem(ptr noundef %235)
  store ptr %236, ptr %4, align 8
  br label %237

237:                                              ; preds = %234, %226, %191, %60, %27, %22
  %238 = load ptr, ptr %4, align 8
  ret ptr %238
}