; Function Attrs: nounwind uwtable
define ptr @cli_vba_inflate(i32 noundef %0, i64 noundef %1, ptr noundef writeonly %2) local_unnamed_addr #0 {
  %4 = alloca i8, align 1
  %5 = alloca i16, align 2
  %6 = alloca [4096 x i8], align 16
  %7 = icmp slt i32 %0, 0
  br i1 %7, label %104, label %8

8:                                                ; preds = %3
  %9 = tail call ptr @blobCreate() #17
  %10 = icmp eq ptr %9, null
  br i1 %10, label %104, label %11

11:                                               ; preds = %8
  call void @llvm.memset.p0.i64(ptr noundef nonnull align 16 dereferenceable(4096) %6, i8 0, i64 4096, i1 false)
  %12 = add nsw i64 %1, 3
  %13 = tail call i64 @lseek(i32 noundef %0, i64 noundef %12, i32 noundef 0) #17
  %14 = call i64 @cli_readn(i32 noundef %0, ptr noundef nonnull %4, i64 noundef 1) #17
  %15 = icmp eq i64 %14, 1
  br i1 %15, label %.preheader, label %._crit_edge

.preheader:                                       ; preds = %11, %.preheader.backedge
  %.1113 = phi i32 [ %.1113.be, %.preheader.backedge ], [ 0, %11 ]
  %.173112 = phi i32 [ %.173112.be, %.preheader.backedge ], [ 1, %11 ]
  %.075111 = phi i32 [ %.075111.be, %.preheader.backedge ], [ 1, %11 ]
  %16 = and i32 %.1113, 4095
  %17 = load i8, ptr %4, align 1
  %18 = zext i8 %17 to i32
  %19 = and i32 %.075111, %18
  %.not85 = icmp eq i32 %19, 0
  br i1 %.not85, label %73, label %20

20:                                               ; preds = %.preheader
  %21 = call i64 @cli_readn(i32 noundef %0, ptr noundef nonnull %5, i64 noundef 2) #17
  %.not.i = icmp eq i64 %21, 2
  br i1 %.not.i, label %24, label %22

22:                                               ; preds = %20
  call void @blobDestroy(ptr noundef nonnull %9) #17
  %.not89 = icmp eq ptr %2, null
  br i1 %.not89, label %104, label %23

23:                                               ; preds = %22
  store i64 0, ptr %2, align 8
  br label %104

24:                                               ; preds = %20
  %25 = icmp ugt i32 %16, 16
  %26 = select i1 %25, i32 11, i32 12
  %27 = insertelement <4 x i32> poison, i32 %16, i64 0
  %28 = shufflevector <4 x i32> %27, <4 x i32> poison, <4 x i32> zeroinitializer
  %29 = icmp ugt <4 x i32> %28, <i32 32, i32 64, i32 128, i32 256>
  %30 = icmp ugt i32 %16, 512
  %.neg93 = sext i1 %30 to i32
  %31 = icmp ugt i32 %16, 1024
  %.neg94 = sext i1 %31 to i32
  %32 = icmp ugt i32 %16, 2048
  %.neg95 = sext i1 %32 to i32
  %33 = bitcast <4 x i1> %29 to i4
  %34 = call i4 @llvm.ctpop.i4(i4 %33), !range !4
  %35 = zext nneg i4 %34 to i32
  %op.rdx = sub nsw i32 %.neg93, %35
  %op.rdx122 = add nsw i32 %.neg94, %.neg95
  %op.rdx123 = add nsw i32 %op.rdx, %op.rdx122
  %op.rdx124 = add nsw i32 %op.rdx123, %26
  %36 = load i16, ptr %5, align 2
  %37 = zext i16 %36 to i32
  %notmask = shl nsw i32 -1, %op.rdx124
  %38 = trunc nsw i32 %notmask to i16
  %39 = xor i16 %38, -1
  %40 = and i16 %36, %39
  %41 = add nuw nsw i16 %40, 3
  %42 = lshr i32 %37, %op.rdx124
  %43 = xor i32 %42, -1
  %44 = add i32 %.1113, %43
  %45 = zext nneg i16 %41 to i32
  %46 = add i32 %44, %45
  %47 = and i32 %46, 4095
  %48 = icmp ult i32 %47, %16
  %49 = add nuw nsw i32 %16, %45
  %50 = icmp ult i32 %49, 4096
  %or.cond98 = select i1 %48, i1 %50, i1 false
  br i1 %or.cond98, label %51, label %.preheader125

.preheader125:                                    ; preds = %51, %24
  br label %62

51:                                               ; preds = %24
  %52 = and i32 %44, 4095
  %53 = add nuw nsw i32 %52, %45
  %54 = icmp ult i32 %53, 4096
  br i1 %54, label %55, label %.preheader125

55:                                               ; preds = %51
  %56 = zext nneg i32 %16 to i64
  %57 = getelementptr inbounds [4096 x i8], ptr %6, i64 0, i64 %56
  %58 = zext nneg i32 %52 to i64
  %59 = getelementptr inbounds [4096 x i8], ptr %6, i64 0, i64 %58
  %60 = zext nneg i16 %41 to i64
  call void @llvm.memcpy.p0.p0.i64(ptr noundef nonnull align 1 dereferenceable(1) %57, ptr noundef nonnull align 1 dereferenceable(1) %59, i64 %60, i1 false)
  %61 = add i32 %.1113, %45
  br label %.loopexit

62:                                               ; preds = %.preheader125, %62
  %.0110 = phi i16 [ %63, %62 ], [ %41, %.preheader125 ]
  %.2109 = phi i32 [ %69, %62 ], [ %.1113, %.preheader125 ]
  %63 = add i16 %.0110, -1
  %64 = add i32 %.2109, %43
  %65 = and i32 %64, 4095
  %66 = zext nneg i32 %65 to i64
  %67 = getelementptr inbounds [4096 x i8], ptr %6, i64 0, i64 %66
  %68 = load i8, ptr %67, align 1
  %69 = add i32 %.2109, 1
  %70 = and i32 %.2109, 4095
  %71 = zext nneg i32 %70 to i64
  %72 = getelementptr inbounds [4096 x i8], ptr %6, i64 0, i64 %71
  store i8 %68, ptr %72, align 1
  %.not96 = icmp eq i16 %63, 0
  br i1 %.not96, label %.loopexit, label %62

73:                                               ; preds = %.preheader
  %74 = icmp ne i32 %.1113, 0
  %75 = icmp eq i32 %16, 0
  %or.cond4 = and i1 %74, %75
  %76 = icmp ne i32 %.173112, 0
  %or.cond6 = and i1 %or.cond4, %76
  br i1 %or.cond6, label %77, label %83

77:                                               ; preds = %73
  %78 = call i64 @cli_readn(i32 noundef %0, ptr noundef nonnull %5, i64 noundef 2) #17
  %.not86 = icmp eq i64 %78, 2
  br i1 %.not86, label %81, label %79

79:                                               ; preds = %77
  call void @blobDestroy(ptr noundef nonnull %9) #17
  %.not87 = icmp eq ptr %2, null
  br i1 %.not87, label %104, label %80

80:                                               ; preds = %79
  store i64 0, ptr %2, align 8
  br label %104

81:                                               ; preds = %77
  %82 = call i32 @blobAddData(ptr noundef nonnull %9, ptr noundef nonnull %6, i64 noundef 4096) #17
  br label %.loopexit101

83:                                               ; preds = %73
  %84 = zext nneg i32 %16 to i64
  %85 = getelementptr inbounds [4096 x i8], ptr %6, i64 0, i64 %84
  %86 = call i64 @cli_readn(i32 noundef %0, ptr noundef nonnull %85, i64 noundef 1) #17
  %87 = icmp eq i64 %86, 1
  %88 = zext i1 %87 to i32
  %spec.select = add i32 %.1113, %88
  br label %.loopexit

.loopexit:                                        ; preds = %62, %83, %55
  %.3 = phi i32 [ %61, %55 ], [ %spec.select, %83 ], [ %69, %62 ]
  %89 = shl nuw nsw i32 %.075111, 1
  %90 = icmp ult i32 %.075111, 128
  br i1 %90, label %.preheader.backedge, label %.loopexit101

.preheader.backedge:                              ; preds = %.loopexit, %.loopexit101
  %.1113.be = phi i32 [ %.3, %.loopexit ], [ %.1104, %.loopexit101 ]
  %.173112.be = phi i32 [ 1, %.loopexit ], [ %.274, %.loopexit101 ]
  %.075111.be = phi i32 [ %89, %.loopexit ], [ 1, %.loopexit101 ]
  br label %.preheader

.loopexit101:                                     ; preds = %.loopexit, %81
  %.1104 = phi i32 [ %.1113, %81 ], [ %.3, %.loopexit ]
  %.274 = phi i32 [ 0, %81 ], [ 1, %.loopexit ]
  %91 = call i64 @cli_readn(i32 noundef %0, ptr noundef nonnull %4, i64 noundef 1) #17
  %92 = icmp eq i64 %91, 1
  br i1 %92, label %.preheader.backedge, label %._crit_edge.loopexit

._crit_edge.loopexit:                             ; preds = %.loopexit101
  %93 = and i32 %.1104, 4095
  %94 = zext nneg i32 %93 to i64
  br label %._crit_edge

._crit_edge:                                      ; preds = %._crit_edge.loopexit, %11
  %.071.lcssa = phi i64 [ 0, %11 ], [ %94, %._crit_edge.loopexit ]
  %95 = call i32 @blobAddData(ptr noundef nonnull %9, ptr noundef nonnull %6, i64 noundef %.071.lcssa) #17
  %96 = icmp slt i32 %95, 0
  br i1 %96, label %97, label %99

97:                                               ; preds = %._crit_edge
  call void @blobDestroy(ptr noundef nonnull %9) #17
  %.not84 = icmp eq ptr %2, null
  br i1 %.not84, label %104, label %98

98:                                               ; preds = %97
  store i64 0, ptr %2, align 8
  br label %104

99:                                               ; preds = %._crit_edge
  %.not = icmp eq ptr %2, null
  br i1 %.not, label %102, label %100

100:                                              ; preds = %99
  %101 = call i64 @blobGetDataSize(ptr noundef nonnull %9) #17
  store i64 %101, ptr %2, align 8
  br label %102

102:                                              ; preds = %100, %99
  %103 = call ptr @blobToMem(ptr noundef nonnull %9) #17
  br label %104

104:                                              ; preds = %97, %98, %79, %80, %22, %23, %8, %3, %102
  %.070 = phi ptr [ %103, %102 ], [ null, %3 ], [ null, %8 ], [ null, %23 ], [ null, %22 ], [ null, %80 ], [ null, %79 ], [ null, %98 ], [ null, %97 ]
  ret ptr %.070
}